; Function Attrs: alwaysinline norecurse nounwind ssp uwtable
define internal void @"_ZN6open3d4core15ParallelForCPU_IZZZNS_1t8geometry6kernel10pointcloud19NormalizeNormalsCPUERNS0_6TensorEENK3$_0clEvENKUlvE_clEvEUllE_EEvRKNS0_6DeviceElRKT_.omp_outlined"(ptr noalias noundef readonly captures(none) %0, ptr noalias readnone captures(none) %1, ptr noundef nonnull readonly align 8 captures(none) dereferenceable(8) %2, ptr noundef nonnull readonly align 8 captures(none) dereferenceable(8) %3) #25 personality ptr @__gxx_personality_v0 {
  %5 = alloca i64, align 8
  %6 = alloca i64, align 8
  %7 = alloca i64, align 8
  %8 = alloca i32, align 4
  %9 = load i64, ptr %2, align 8, !tbaa !8
  %10 = icmp sgt i64 %9, 0
  br i1 %10, label %11, label %32

11:                                               ; preds = %4
  %12 = add nsw i64 %9, -1
  call void @llvm.lifetime.start.p0(i64 8, ptr nonnull %5) #26
  store i64 0, ptr %5, align 8, !tbaa !8
  call void @llvm.lifetime.start.p0(i64 8, ptr nonnull %6) #26
  store i64 %12, ptr %6, align 8, !tbaa !8
  call void @llvm.lifetime.start.p0(i64 8, ptr nonnull %7) #26
  store i64 1, ptr %7, align 8, !tbaa !8
  call void @llvm.lifetime.start.p0(i64 4, ptr nonnull %8) #26
  store i32 0, ptr %8, align 4, !tbaa !34
  %13 = load i32, ptr %0, align 4, !tbaa !34
  call void @__kmpc_for_static_init_8(ptr nonnull @1, i32 %13, i32 34, ptr nonnull %8, ptr nonnull %5, ptr nonnull %6, ptr nonnull %7, i64 1, i64 1)
  %14 = load i64, ptr %6, align 8, !tbaa !8
  %15 = call i64 @llvm.smin.i64(i64 %14, i64 %12)
  store i64 %15, ptr %6, align 8, !tbaa !8
  %16 = load i64, ptr %5, align 8, !tbaa !8
  %.not13 = icmp sgt i64 %16, %15
  br i1 %.not13, label %._crit_edge, label %.lr.ph

.lr.ph:                                           ; preds = %11
  %.val = load ptr, ptr %3, align 8, !tbaa !868
  br label %17

17:                                               ; preds = %.lr.ph, %17
  %.014 = phi i64 [ %16, %.lr.ph ], [ %31, %17 ]
  %.idx.i = mul i64 %.014, 12
  %18 = getelementptr i8, ptr %.val, i64 %.idx.i
  %19 = load float, ptr %18, align 4, !tbaa !4
  %20 = getelementptr i8, ptr %18, i64 4
  %21 = load float, ptr %20, align 4, !tbaa !4
  %22 = getelementptr i8, ptr %18, i64 8
  %23 = load float, ptr %22, align 4, !tbaa !4
  %24 = fmul float %21, %21
  %25 = call float @llvm.fmuladd.f32(float %19, float %19, float %24)
  %26 = call float @llvm.fmuladd.f32(float %23, float %23, float %25)
  %sqrt.i = call float @llvm.sqrt.f32(float %26)
  %27 = fcmp ogt float %26, 0.000000e+00
  %28 = fdiv float %19, %sqrt.i
  %29 = fdiv float %21, %sqrt.i
  %30 = fdiv float %23, %sqrt.i
  %.024.i = select i1 %27, float %29, float %21
  %.023.i = select i1 %27, float %30, float %23
  %.0.i = select i1 %27, float %28, float %19
  store float %.0.i, ptr %18, align 4, !tbaa !4
  store float %.024.i, ptr %20, align 4, !tbaa !4
  store float %.023.i, ptr %22, align 4, !tbaa !4
  %31 = add i64 %.014, 1
  %exitcond.not = icmp eq i64 %.014, %15
  br i1 %exitcond.not, label %._crit_edge, label %17

._crit_edge:                                      ; preds = %17, %11
  call void @__kmpc_for_static_fini(ptr nonnull @1, i32 %13)
  call void @llvm.lifetime.end.p0(i64 4, ptr nonnull %8) #26
  call void @llvm.lifetime.end.p0(i64 8, ptr nonnull %7) #26
  call void @llvm.lifetime.end.p0(i64 8, ptr nonnull %6) #26
  call void @llvm.lifetime.end.p0(i64 8, ptr nonnull %5) #26
  br label %32

32:                                               ; preds = %._crit_edge, %4
  ret void
}